target datalayout = "e-m:e-p270:32:32-p271:32:32-p272:64:64-i64:64-i128:128-f80:128-n8:16:32:64-S128"
target triple = "x86_64-pc-linux-gnu"

%class.File = type { ptr, i64, i8, i32, i8, i8, i32, i8, i8, i8, i8, i8, i64, i8, [2048 x i32], i32, ptr }

; Function Attrs: mustprogress uwtable
define noundef zeroext i1 @_ZN4File4OpenEPKwj(ptr noundef nonnull align 8 dereferenceable(8256) %0, ptr noundef %1, i32 noundef %2) unnamed_addr #1 align 2 {
  %4 = alloca i1, align 1
  %5 = alloca ptr, align 8
  %6 = alloca ptr, align 8
  %7 = alloca i32, align 4
  %8 = alloca i64, align 8
  %9 = alloca i8, align 1
  %10 = alloca i8, align 1
  %11 = alloca i8, align 1
  %12 = alloca i32, align 4
  %13 = alloca [2048 x i8], align 16
  %14 = alloca i32, align 4
  %15 = alloca i8, align 1
  store ptr %0, ptr %5, align 8
  store ptr %1, ptr %6, align 8
  store i32 %2, ptr %7, align 4
  %16 = load ptr, ptr %5, align 8
  %17 = getelementptr inbounds %class.File, ptr %16, i32 0, i32 15
  store i32 0, ptr %17, align 4
  %18 = getelementptr inbounds %class.File, ptr %16, i32 0, i32 13
  %19 = load i8, ptr %18, align 8
  %20 = trunc i8 %19 to i1
  br i1 %20, label %25, label %21

21:                                               ; preds = %3
  %22 = load i32, ptr %7, align 4
  %23 = and i32 %22, 4
  %24 = icmp ne i32 %23, 0
  br label %25

25:                                               ; preds = %21, %3
  %26 = phi i1 [ true, %3 ], [ %24, %21 ]
  %27 = zext i1 %26 to i8
  store i8 %27, ptr %9, align 1
  %28 = load i32, ptr %7, align 4
  %29 = and i32 %28, 1
  %30 = icmp ne i32 %29, 0
  %31 = zext i1 %30 to i8
  store i8 %31, ptr %10, align 1
  %32 = load i32, ptr %7, align 4
  %33 = and i32 %32, 2
  %34 = icmp ne i32 %33, 0
  %35 = zext i1 %34 to i8
  store i8 %35, ptr %11, align 1
  %36 = load i8, ptr %10, align 1
  %37 = trunc i8 %36 to i1
  br i1 %37, label %38, label %39

38:                                               ; preds = %25
  br label %43

39:                                               ; preds = %25
  %40 = load i8, ptr %11, align 1
  %41 = trunc i8 %40 to i1
  %42 = select i1 %41, i32 1, i32 0
  br label %43

43:                                               ; preds = %39, %38
  %44 = phi i32 [ 2, %38 ], [ %42, %39 ]
  store i32 %44, ptr %12, align 4
  %45 = getelementptr inbounds %class.File, ptr %16, i32 0, i32 10
  %46 = load i8, ptr %45, align 1
  %47 = trunc i8 %46 to i1
  br i1 %47, label %48, label %51

48:                                               ; preds = %43
  %49 = load i32, ptr %12, align 4
  %50 = or i32 %49, 262144
  store i32 %50, ptr %12, align 4
  br label %51

51:                                               ; preds = %48, %43
  %52 = load ptr, ptr %6, align 8
  %53 = getelementptr inbounds [2048 x i8], ptr %13, i64 0, i64 0
  %54 = call noundef zeroext i1 @_Z10WideToCharPKwPcm(ptr noundef %52, ptr noundef %53, i64 noundef 2048)
  %55 = getelementptr inbounds [2048 x i8], ptr %13, i64 0, i64 0
  %56 = load i32, ptr %12, align 4
  %57 = call i32 (ptr, i32, ...) @open64(ptr noundef %55, i32 noundef %56)
  store i32 %57, ptr %14, align 4
  %58 = load i8, ptr %9, align 1
  %59 = trunc i8 %58 to i1
  br i1 %59, label %73, label %60

60:                                               ; preds = %51
  %61 = load i8, ptr %10, align 1
  %62 = trunc i8 %61 to i1
  br i1 %62, label %63, label %73

63:                                               ; preds = %60
  %64 = load i32, ptr %14, align 4
  %65 = icmp sge i32 %64, 0
  br i1 %65, label %66, label %73

66:                                               ; preds = %63
  %67 = load i32, ptr %14, align 4
  %68 = call i32 @flock(i32 noundef %67, i32 noundef 6) #10
  %69 = icmp eq i32 %68, -1
  br i1 %69, label %70, label %73

70:                                               ; preds = %66
  %71 = load i32, ptr %14, align 4
  %72 = call i32 @close(i32 noundef %71)
  store i1 false, ptr %4, align 1
  br label %108

73:                                               ; preds = %66, %63, %60, %51
  %74 = load i32, ptr %14, align 4
  %75 = icmp eq i32 %74, -1
  br i1 %75, label %76, label %77

76:                                               ; preds = %73
  store i64 -1, ptr %8, align 8
  br label %80

77:                                               ; preds = %73
  %78 = load i32, ptr %14, align 4
  %79 = sext i32 %78 to i64
  store i64 %79, ptr %8, align 8
  br label %80

80:                                               ; preds = %77, %76
  %81 = load i64, ptr %8, align 8
  %82 = icmp eq i64 %81, -1
  br i1 %82, label %83, label %89

83:                                               ; preds = %80
  %84 = call ptr @__errno_location() #12
  %85 = load i32, ptr %84, align 4
  %86 = icmp eq i32 %85, 2
  br i1 %86, label %87, label %89

87:                                               ; preds = %83
  %88 = getelementptr inbounds %class.File, ptr %16, i32 0, i32 15
  store i32 1, ptr %88, align 4
  br label %89

89:                                               ; preds = %87, %83, %80
  %90 = getelementptr inbounds %class.File, ptr %16, i32 0, i32 7
  store i8 0, ptr %90, align 8
  %91 = getelementptr inbounds %class.File, ptr %16, i32 0, i32 3
  store i32 0, ptr %91, align 4
  %92 = getelementptr inbounds %class.File, ptr %16, i32 0, i32 5
  store i8 0, ptr %92, align 1
  %93 = load i64, ptr %8, align 8
  %94 = icmp ne i64 %93, -1
  %95 = zext i1 %94 to i8
  store i8 %95, ptr %15, align 1
  %96 = load i8, ptr %15, align 1
  %97 = trunc i8 %96 to i1
  br i1 %97, label %98, label %105

98:                                               ; preds = %89
  %99 = load i64, ptr %8, align 8
  %100 = getelementptr inbounds %class.File, ptr %16, i32 0, i32 1
  store i64 %99, ptr %100, align 8
  %101 = getelementptr inbounds %class.File, ptr %16, i32 0, i32 14
  %102 = getelementptr inbounds [2048 x i32], ptr %101, i64 0, i64 0
  %103 = load ptr, ptr %6, align 8
  call void @_Z8wcsncpyzPwPKwm(ptr noundef %102, ptr noundef %103, i64 noundef 2048)
  %104 = getelementptr inbounds %class.File, ptr %16, i32 0, i32 11
  store i8 0, ptr %104, align 4
  br label %105

105:                                              ; preds = %98, %89
  %106 = load i8, ptr %15, align 1
  %107 = trunc i8 %106 to i1
  store i1 %107, ptr %4, align 1
  br label %108

108:                                              ; preds = %105, %70
  %109 = load i1, ptr %4, align 1
  ret i1 %109
}