; Function Attrs: mustprogress uwtable
define noundef zeroext i1 @_ZN4File4OpenEPKwj(ptr noundef nonnull align 8 dereferenceable(8256) %0, ptr noundef %1, i32 noundef %2) unnamed_addr #2 align 2 {
  %4 = alloca [2048 x i8], align 16
  %5 = getelementptr inbounds i8, ptr %0, i64 8244
  store i32 0, ptr %5, align 4
  %6 = getelementptr inbounds i8, ptr %0, i64 48
  %7 = load i8, ptr %6, align 8
  %8 = trunc i8 %7 to i1
  %9 = and i32 %2, 4
  %10 = icmp ne i32 %9, 0
  %11 = or i1 %10, %8
  %12 = and i32 %2, 1
  %13 = icmp ne i32 %12, 0
  %14 = lshr i32 %2, 1
  %.lobit = and i32 %14, 1
  %15 = select i1 %13, i32 2, i32 %.lobit
  %16 = getelementptr inbounds i8, ptr %0, i64 35
  %17 = load i8, ptr %16, align 1
  %18 = trunc i8 %17 to i1
  %19 = or disjoint i32 %15, 262144
  %spec.select = select i1 %18, i32 %19, i32 %15
  %20 = call noundef zeroext i1 @_Z10WideToCharPKwPcm(ptr noundef %1, ptr noundef nonnull %4, i64 noundef 2048)
  %21 = call i32 (ptr, i32, ...) @open64(ptr noundef nonnull %4, i32 noundef %spec.select)
  %.not = xor i1 %11, true
  %22 = icmp sgt i32 %21, -1
  %23 = and i1 %22, %.not
  %or.cond26 = and i1 %13, %23
  br i1 %or.cond26, label %24, label %29

24:                                               ; preds = %3
  %25 = call i32 @flock(i32 noundef %21, i32 noundef 6) #18
  %26 = icmp eq i32 %25, -1
  br i1 %26, label %27, label %.thread27

27:                                               ; preds = %24
  %28 = call i32 @close(i32 noundef %21)
  br label %46

29:                                               ; preds = %3
  %30 = icmp eq i32 %21, -1
  br i1 %30, label %31, label %.thread27

31:                                               ; preds = %29
  %32 = tail call ptr @__errno_location() #20
  %33 = load i32, ptr %32, align 4
  %34 = icmp eq i32 %33, 2
  br i1 %34, label %35, label %.thread

35:                                               ; preds = %31
  store i32 1, ptr %5, align 4
  br label %.thread

.thread:                                          ; preds = %35, %31
  %36 = getelementptr inbounds i8, ptr %0, i64 32
  store i8 0, ptr %36, align 8
  %37 = getelementptr inbounds i8, ptr %0, i64 20
  store i32 0, ptr %37, align 4
  %38 = getelementptr inbounds i8, ptr %0, i64 25
  store i8 0, ptr %38, align 1
  br label %46

.thread27:                                        ; preds = %24, %29
  %39 = sext i32 %21 to i64
  %40 = getelementptr inbounds i8, ptr %0, i64 32
  store i8 0, ptr %40, align 8
  %41 = getelementptr inbounds i8, ptr %0, i64 20
  store i32 0, ptr %41, align 4
  %42 = getelementptr inbounds i8, ptr %0, i64 25
  store i8 0, ptr %42, align 1
  %43 = getelementptr inbounds i8, ptr %0, i64 8
  store i64 %39, ptr %43, align 8
  %44 = getelementptr inbounds i8, ptr %0, i64 52
  call void @_Z8wcsncpyzPwPKwm(ptr noundef nonnull %44, ptr noundef %1, i64 noundef 2048)
  %45 = getelementptr inbounds i8, ptr %0, i64 36
  store i8 0, ptr %45, align 4
  br label %46

46:                                               ; preds = %.thread, %.thread27, %27
  %.0 = phi i1 [ false, %27 ], [ true, %.thread27 ], [ false, %.thread ]
  ret i1 %.0
}